; Function Attrs: mustprogress nounwind uwtable
define dso_local void @_ZN3igl28max_faces_stopping_conditionERiiiRSt8functionIFbRKN5Eigen6MatrixIdLin1ELin1ELi0ELin1ELin1EEERKNS3_IiLin1ELin1ELi0ELin1ELin1EEES9_RKNS3_IiLin1ELi1ELi0ELin1ELi1EEES9_S9_RKSt14priority_queueISt5tupleIJdiiEESt6vectorISF_SaISF_EESt7greaterISF_EESC_S6_iiiiiEE(ptr noundef nonnull align 4 dereferenceable(4) %0, i32 noundef %1, i32 noundef %2, ptr noundef nonnull align 8 captures(none) dereferenceable(32) %3) local_unnamed_addr #0 personality ptr @__gxx_personality_v0 {
  %5 = alloca %"class.std::function", align 8
  call void @llvm.lifetime.start.p0(i64 32, ptr nonnull %5) #8
  %6 = getelementptr inbounds nuw i8, ptr %5, i64 16
  %7 = getelementptr inbounds nuw i8, ptr %5, i64 24
  call void @llvm.memcpy.p0.p0.i64(ptr noundef nonnull align 8 dereferenceable(32) %5, ptr noundef nonnull align 8 dereferenceable(32) %3, i64 16, i1 false), !tbaa.struct !4
  store i32 %1, ptr %3, align 8
  %.sroa.4.0..sroa_idx = getelementptr inbounds nuw i8, ptr %3, i64 4
  store i32 %2, ptr %.sroa.4.0..sroa_idx, align 4
  %.sroa.5.0..sroa_idx = getelementptr inbounds nuw i8, ptr %3, i64 8
  store ptr %0, ptr %.sroa.5.0..sroa_idx, align 8
  %8 = getelementptr inbounds nuw i8, ptr %3, i64 16
  %9 = load ptr, ptr %8, align 8, !tbaa !8
  store ptr %9, ptr %6, align 8, !tbaa !8
  store ptr @"_ZNSt17_Function_handlerIFbRKN5Eigen6MatrixIdLin1ELin1ELi0ELin1ELin1EEERKNS1_IiLin1ELin1ELi0ELin1ELin1EEES7_RKNS1_IiLin1ELi1ELi0ELin1ELi1EEES7_S7_RKSt14priority_queueISt5tupleIJdiiEESt6vectorISD_SaISD_EESt7greaterISD_EESA_S4_iiiiiEZN3igl28max_faces_stopping_conditionERiiiRSt8functionISM_EE3$_0E10_M_managerERSt9_Any_dataRKSU_St18_Manager_operation", ptr %8, align 8, !tbaa !8
  %10 = getelementptr inbounds nuw i8, ptr %3, i64 24
  %11 = load ptr, ptr %10, align 8, !tbaa !8
  store ptr %11, ptr %7, align 8, !tbaa !8
  store ptr @"_ZNSt17_Function_handlerIFbRKN5Eigen6MatrixIdLin1ELin1ELi0ELin1ELin1EEERKNS1_IiLin1ELin1ELi0ELin1ELin1EEES7_RKNS1_IiLin1ELi1ELi0ELin1ELi1EEES7_S7_RKSt14priority_queueISt5tupleIJdiiEESt6vectorISD_SaISD_EESt7greaterISD_EESA_S4_iiiiiEZN3igl28max_faces_stopping_conditionERiiiRSt8functionISM_EE3$_0E9_M_invokeERKSt9_Any_dataS4_S7_S7_SA_S7_S7_SL_SA_S4_OiSX_SX_SX_SX_", ptr %10, align 8, !tbaa !8
  %.not.i.i = icmp eq ptr %9, null
  br i1 %.not.i.i, label %"_ZNSt8functionIFbRKN5Eigen6MatrixIdLin1ELin1ELi0ELin1ELin1EEERKNS1_IiLin1ELin1ELi0ELin1ELin1EEES7_RKNS1_IiLin1ELi1ELi0ELin1ELi1EEES7_S7_RKSt14priority_queueISt5tupleIJdiiEESt6vectorISD_SaISD_EESt7greaterISD_EESA_S4_iiiiiEEaSIZN3igl28max_faces_stopping_conditionERiiiRSN_E3$_0EENSt9enable_ifIXsr9_CallableIT_EE5valueESR_E4typeEOSU_.exit", label %12

12:                                               ; preds = %4
  %13 = invoke noundef zeroext i1 %9(ptr noundef nonnull align 8 dereferenceable(32) %5, ptr noundef nonnull align 8 dereferenceable(32) %5, i32 noundef 3)
          to label %"_ZNSt8functionIFbRKN5Eigen6MatrixIdLin1ELin1ELi0ELin1ELin1EEERKNS1_IiLin1ELin1ELi0ELin1ELin1EEES7_RKNS1_IiLin1ELi1ELi0ELin1ELi1EEES7_S7_RKSt14priority_queueISt5tupleIJdiiEESt6vectorISD_SaISD_EESt7greaterISD_EESA_S4_iiiiiEEaSIZN3igl28max_faces_stopping_conditionERiiiRSN_E3$_0EENSt9enable_ifIXsr9_CallableIT_EE5valueESR_E4typeEOSU_.exit" unwind label %14

14:                                               ; preds = %12
  %15 = landingpad { ptr, i32 }
          catch ptr null
  %16 = extractvalue { ptr, i32 } %15, 0
  call void @__clang_call_terminate(ptr %16) #9
  unreachable

"_ZNSt8functionIFbRKN5Eigen6MatrixIdLin1ELin1ELi0ELin1ELin1EEERKNS1_IiLin1ELin1ELi0ELin1ELin1EEES7_RKNS1_IiLin1ELi1ELi0ELin1ELi1EEES7_S7_RKSt14priority_queueISt5tupleIJdiiEESt6vectorISD_SaISD_EESt7greaterISD_EESA_S4_iiiiiEEaSIZN3igl28max_faces_stopping_conditionERiiiRSN_E3$_0EENSt9enable_ifIXsr9_CallableIT_EE5valueESR_E4typeEOSU_.exit": ; preds = %4, %12
  call void @llvm.lifetime.end.p0(i64 32, ptr nonnull %5) #8
  ret void
}